target datalayout = "e-m:e-p270:32:32-p271:32:32-p272:64:64-i64:64-i128:128-f80:128-n8:16:32:64-S128"
target triple = "x86_64-pc-linux-gnu"

%struct.GDBUserState = type { i32, ptr, i32, i8, [16 x i64], i8, i32, [2 x i32], i32, i32, [128 x i8], i64 }
%struct.GDBState = type { i8, ptr, ptr, ptr, i32, [4096 x i8], i32, i32, i32, ptr, i32, i8, ptr, i32, ptr, ptr, i32, i32, i8 }

@gdbserver_user_state = internal global %struct.GDBUserState zeroinitializer, align 8
@gdbserver_state = external global %struct.GDBState, align 8
@.str.2 = private unnamed_addr constant [6 x i8] c"X%02x\00", align 1

; Function Attrs: nounwind sspstrong uwtable
define dso_local void @gdb_signalled(ptr noundef %0, i32 noundef %1) #0 {
  %3 = alloca ptr, align 8
  %4 = alloca i32, align 4
  %5 = alloca [4 x i8], align 1
  %6 = alloca i32, align 4
  store ptr %0, ptr %3, align 8
  store i32 %1, ptr %4, align 4
  call void @llvm.lifetime.start.p0(i64 4, ptr %5) #14
  call void @llvm.memset.p0.i64(ptr align 1 %5, i8 0, i64 4, i1 false), !annotation !4
  %7 = load i8, ptr @gdbserver_state, align 8, !range !7, !noundef !8
  %8 = trunc i8 %7 to i1
  br i1 %8, label %9, label %15

9:                                                ; preds = %2
  %10 = load i32, ptr @gdbserver_user_state, align 8
  %11 = icmp slt i32 %10, 0
  br i1 %11, label %15, label %12

12:                                               ; preds = %9
  %13 = load i8, ptr getelementptr inbounds nuw (%struct.GDBState, ptr @gdbserver_state, i32 0, i32 18), align 8, !range !7, !noundef !8
  %14 = trunc i8 %13 to i1
  br i1 %14, label %16, label %15

15:                                               ; preds = %12, %9, %2
  store i32 1, ptr %6, align 4
  br label %23

16:                                               ; preds = %12
  %17 = getelementptr inbounds [4 x i8], ptr %5, i64 0, i64 0
  %18 = load i32, ptr %4, align 4
  %19 = call i32 @gdb_target_signal_to_gdb(i32 noundef %18)
  %20 = call i32 (ptr, i64, i32, i64, ptr, ...) @__snprintf_chk(ptr noundef %17, i64 noundef 4, i32 noundef 1, i64 noundef 4, ptr noundef @.str.2, i32 noundef %19)
  %21 = getelementptr inbounds [4 x i8], ptr %5, i64 0, i64 0
  %22 = call i32 @gdb_put_packet(ptr noundef %21)
  store i8 0, ptr getelementptr inbounds nuw (%struct.GDBState, ptr @gdbserver_state, i32 0, i32 18), align 8
  store i32 0, ptr %6, align 4
  br label %23

23:                                               ; preds = %16, %15
  call void @llvm.lifetime.end.p0(i64 4, ptr %5) #14
  %24 = load i32, ptr %6, align 4
  switch i32 %24, label %26 [
    i32 0, label %25
    i32 1, label %25
  ]

25:                                               ; preds = %23, %23
  ret void

26:                                               ; preds = %23
  unreachable
}