; Function Attrs: nounwind sspstrong uwtable
define dso_local void @gdb_signalled(ptr noundef readnone captures(none) %0, i32 noundef %1) local_unnamed_addr #0 {
  %3 = alloca [4 x i8], align 4
  call void @llvm.lifetime.start.p0(i64 4, ptr nonnull %3) #16
  %4 = load i8, ptr @gdbserver_state, align 8, !range !7, !noundef !8
  %5 = trunc nuw i8 %4 to i1
  %6 = load i32, ptr @gdbserver_user_state, align 8
  %7 = icmp sgt i32 %6, -1
  %or.cond.not = select i1 %5, i1 %7, i1 false
  br i1 %or.cond.not, label %8, label %15

8:                                                ; preds = %2
  %9 = load i8, ptr getelementptr inbounds nuw (i8, ptr @gdbserver_state, i64 4200), align 8, !range !7, !noundef !8
  %10 = trunc nuw i8 %9 to i1
  br i1 %10, label %11, label %15

11:                                               ; preds = %8
  store i32 0, ptr %3, align 4, !annotation !4
  %12 = tail call i32 @gdb_target_signal_to_gdb(i32 noundef %1) #16
  %13 = call i32 (ptr, i64, i32, i64, ptr, ...) @__snprintf_chk(ptr noundef nonnull %3, i64 noundef 4, i32 noundef 1, i64 noundef 4, ptr noundef nonnull @.str.2, i32 noundef %12) #16
  %14 = call i32 @gdb_put_packet(ptr noundef nonnull %3) #16
  store i8 0, ptr getelementptr inbounds nuw (i8, ptr @gdbserver_state, i64 4200), align 8
  br label %15

15:                                               ; preds = %2, %8, %11
  call void @llvm.lifetime.end.p0(i64 4, ptr nonnull %3) #16
  ret void
}